target datalayout = "e-m:e-p270:32:32-p271:32:32-p272:64:64-i64:64-i128:128-f80:128-n8:16:32:64-S128"
target triple = "x86_64-pc-linux-gnu"

; Function Attrs: nounwind willreturn memory(read) uwtable
define internal i32 @H5T__find_bias(i32 noundef %0, i32 noundef %1, ptr noundef %2, ptr noundef %3) #6 {
  %5 = alloca i32, align 4
  %6 = alloca i32, align 4
  %7 = alloca ptr, align 8
  %8 = alloca ptr, align 8
  %9 = alloca ptr, align 8
  %10 = alloca i8, align 1
  %11 = alloca i32, align 4
  %12 = alloca i32, align 4
  %13 = alloca i32, align 4
  %14 = alloca i32, align 4
  store i32 %0, ptr %5, align 4
  store i32 %1, ptr %6, align 4
  store ptr %2, ptr %7, align 8
  store ptr %3, ptr %8, align 8
  %15 = load ptr, ptr %8, align 8
  store ptr %15, ptr %9, align 8
  store i32 0, ptr %12, align 4
  store i32 0, ptr %14, align 4
  br label %16

16:                                               ; preds = %31, %4
  %17 = load i32, ptr %6, align 4
  %18 = icmp ugt i32 %17, 0
  br i1 %18, label %19, label %68

19:                                               ; preds = %16
  %20 = load i32, ptr %6, align 4
  %21 = load i32, ptr %5, align 4
  %22 = urem i32 %21, 8
  %23 = sub i32 8, %22
  %24 = icmp ult i32 %20, %23
  br i1 %24, label %25, label %27

25:                                               ; preds = %19
  %26 = load i32, ptr %6, align 4
  br label %31

27:                                               ; preds = %19
  %28 = load i32, ptr %5, align 4
  %29 = urem i32 %28, 8
  %30 = sub i32 8, %29
  br label %31

31:                                               ; preds = %27, %25
  %32 = phi i32 [ %26, %25 ], [ %30, %27 ]
  store i32 %32, ptr %13, align 4
  %33 = load i32, ptr %13, align 4
  %34 = shl i32 1, %33
  %35 = sub nsw i32 %34, 1
  %36 = trunc i32 %35 to i8
  store i8 %36, ptr %10, align 1
  %37 = load ptr, ptr %9, align 8
  %38 = load ptr, ptr %7, align 8
  %39 = load i32, ptr %5, align 4
  %40 = udiv i32 %39, 8
  %41 = zext i32 %40 to i64
  %42 = getelementptr inbounds i32, ptr %38, i64 %41
  %43 = load i32, ptr %42, align 4
  %44 = sext i32 %43 to i64
  %45 = getelementptr inbounds i8, ptr %37, i64 %44
  %46 = load i8, ptr %45, align 1
  %47 = zext i8 %46 to i32
  %48 = load i32, ptr %5, align 4
  %49 = urem i32 %48, 8
  %50 = ashr i32 %47, %49
  %51 = load i8, ptr %10, align 1
  %52 = zext i8 %51 to i32
  %53 = and i32 %50, %52
  store i32 %53, ptr %11, align 4
  %54 = load i32, ptr %11, align 4
  %55 = load i32, ptr %12, align 4
  %56 = shl i32 %54, %55
  %57 = load i32, ptr %14, align 4
  %58 = or i32 %57, %56
  store i32 %58, ptr %14, align 4
  %59 = load i32, ptr %13, align 4
  %60 = load i32, ptr %12, align 4
  %61 = add i32 %60, %59
  store i32 %61, ptr %12, align 4
  %62 = load i32, ptr %13, align 4
  %63 = load i32, ptr %6, align 4
  %64 = sub i32 %63, %62
  store i32 %64, ptr %6, align 4
  %65 = load i32, ptr %13, align 4
  %66 = load i32, ptr %5, align 4
  %67 = add i32 %66, %65
  store i32 %67, ptr %5, align 4
  br label %16

68:                                               ; preds = %16
  %69 = load i32, ptr %14, align 4
  ret i32 %69
}