; Function Attrs: mustprogress nofree norecurse nosync nounwind willreturn memory(argmem: read) uwtable
define internal fastcc i32 @H5T__find_bias(i32 noundef %0, i32 noundef %1, ptr nocapture noundef readonly %2, ptr nocapture noundef readonly %3) unnamed_addr #6 {
  %.not24 = icmp eq i32 %1, 0
  br i1 %.not24, label %._crit_edge, label %.lr.ph

.lr.ph:                                           ; preds = %4, %.lr.ph
  %.028 = phi i32 [ %21, %.lr.ph ], [ 0, %4 ]
  %.02127 = phi i32 [ %24, %.lr.ph ], [ %0, %4 ]
  %.02226 = phi i32 [ %22, %.lr.ph ], [ 0, %4 ]
  %.02325 = phi i32 [ %23, %.lr.ph ], [ %1, %4 ]
  %5 = and i32 %.02127, 7
  %6 = sub nuw nsw i32 8, %5
  %7 = tail call i32 @llvm.umin.i32(i32 %.02325, i32 %6)
  %notmask = shl nsw i32 -1, %7
  %8 = lshr i32 %.02127, 3
  %9 = zext nneg i32 %8 to i64
  %10 = getelementptr inbounds i32, ptr %2, i64 %9
  %11 = load i32, ptr %10, align 4
  %12 = sext i32 %11 to i64
  %13 = getelementptr inbounds i8, ptr %3, i64 %12
  %14 = load i8, ptr %13, align 1
  %15 = zext i8 %14 to i32
  %16 = lshr i32 %15, %5
  %17 = and i32 %notmask, 254
  %18 = xor i32 %17, 255
  %19 = and i32 %16, %18
  %20 = shl i32 %19, %.02226
  %21 = or i32 %20, %.028
  %22 = add i32 %7, %.02226
  %23 = sub i32 %.02325, %7
  %24 = add i32 %7, %.02127
  %.not = icmp eq i32 %23, 0
  br i1 %.not, label %._crit_edge, label %.lr.ph

._crit_edge:                                      ; preds = %.lr.ph, %4
  %.0.lcssa = phi i32 [ 0, %4 ], [ %21, %.lr.ph ]
  ret i32 %.0.lcssa
}